target datalayout = "e-m:e-p270:32:32-p271:32:32-p272:64:64-i64:64-i128:128-f80:128-n8:16:32:64-S128"
target triple = "x86_64-unknown-linux-gnu"

%class.symbol = type { ptr }
%class.params = type <{ %class.svector.0, %"struct.std::atomic", [4 x i8] }>
%class.svector.0 = type { %class.vector.1 }
%class.vector.1 = type { ptr }
%"struct.std::atomic" = type { %"struct.std::__atomic_base" }
%"struct.std::__atomic_base" = type { i32 }
%"struct.std::pair" = type { %class.symbol, %"struct.params::value" }
%"struct.params::value" = type { i32, %union.anon.2 }
%union.anon.2 = type { double }
%class.rational = type { %class.mpq }
%class.mpq = type { %class.mpz, %class.mpz }
%class.mpz = type { i32, i8, ptr }

@_ZN8rational13g_mpq_managerE = external global ptr, align 8

; Function Attrs: mustprogress uwtable
define linkonce_odr hidden void @_ZN11mpq_managerILb1EE3delEPS0_R3mpq(ptr noundef %m, ptr noundef nonnull align 8 dereferenceable(32) %a) #5 comdat align 2 {
entry:
  %m.addr = alloca ptr, align 8
  %a.addr = alloca ptr, align 8
  store ptr %m, ptr %m.addr, align 8
  store ptr %a, ptr %a.addr, align 8
  %0 = load ptr, ptr %m.addr, align 8
  %1 = load ptr, ptr %a.addr, align 8
  %m_num = getelementptr inbounds %class.mpq, ptr %1, i32 0, i32 0
  call void @_ZN11mpz_managerILb1EE3delEPS0_R3mpz(ptr noundef %0, ptr noundef nonnull align 8 dereferenceable(16) %m_num)
  %2 = load ptr, ptr %m.addr, align 8
  %3 = load ptr, ptr %a.addr, align 8
  %m_den = getelementptr inbounds %class.mpq, ptr %3, i32 0, i32 1
  call void @_ZN11mpz_managerILb1EE3delEPS0_R3mpz(ptr noundef %2, ptr noundef nonnull align 8 dereferenceable(16) %m_den)
  ret void
}

; Function Attrs: mustprogress nounwind uwtable
define linkonce_odr hidden void @_ZN8rationalD2Ev(ptr noundef nonnull align 8 dereferenceable(32) %this) unnamed_addr #4 comdat align 2 personality ptr @__gxx_personality_v0 {
entry:
  %this.addr = alloca ptr, align 8
  store ptr %this, ptr %this.addr, align 8
  %this1 = load ptr, ptr %this.addr, align 8
  %0 = load ptr, ptr @_ZN8rational13g_mpq_managerE, align 8
  %m_val = getelementptr inbounds %class.rational, ptr %this1, i32 0, i32 0
  invoke void @_ZN11mpq_managerILb1EE3delEPS0_R3mpq(ptr noundef %0, ptr noundef nonnull align 8 dereferenceable(32) %m_val)
          to label %invoke.cont unwind label %terminate.lpad

invoke.cont:                                      ; preds = %entry
  ret void

terminate.lpad:                                   ; preds = %entry
  %1 = landingpad { ptr, i32 }
          catch ptr null
  %2 = extractvalue { ptr, i32 } %1, 0
  call void @__clang_call_terminate(ptr %2) #16
  unreachable
}

; Function Attrs: mustprogress uwtable
define linkonce_odr hidden void @_ZN6vectorISt4pairI6symbolN6params5valueEELb0EjE11free_memoryEv(ptr noundef nonnull align 8 dereferenceable(8) %this) #5 comdat align 2 {
entry:
  %this.addr = alloca ptr, align 8
  store ptr %this, ptr %this.addr, align 8
  %this1 = load ptr, ptr %this.addr, align 8
  %m_data = getelementptr inbounds %class.vector.1, ptr %this1, i32 0, i32 0
  %0 = load ptr, ptr %m_data, align 8
  %add.ptr = getelementptr inbounds i32, ptr %0, i64 -2
  call void @_ZN6memory10deallocateEPv(ptr noundef %add.ptr)
  ret void
}

; Function Attrs: mustprogress uwtable
define linkonce_odr hidden void @_Z7deallocI8rationalEvPT_(ptr noundef %ptr) #5 comdat {
entry:
  %ptr.addr = alloca ptr, align 8
  store ptr %ptr, ptr %ptr.addr, align 8
  %0 = load ptr, ptr %ptr.addr, align 8
  %cmp = icmp eq ptr %0, null
  br i1 %cmp, label %if.then, label %if.end

if.then:                                          ; preds = %entry
  br label %return

if.end:                                           ; preds = %entry
  %1 = load ptr, ptr %ptr.addr, align 8
  call void @_ZN8rationalD2Ev(ptr noundef nonnull align 8 dereferenceable(32) %1) #3
  %2 = load ptr, ptr %ptr.addr, align 8
  call void @_ZN6memory10deallocateEPv(ptr noundef %2)
  br label %return

return:                                           ; preds = %if.end, %if.then
  ret void
}

; Function Attrs: mustprogress nounwind uwtable
define linkonce_odr hidden noundef i32 @_ZNK6vectorISt4pairI6symbolN6params5valueEELb0EjE4sizeEv(ptr noundef nonnull align 8 dereferenceable(8) %this) #4 comdat align 2 {
entry:
  %retval = alloca i32, align 4
  %this.addr = alloca ptr, align 8
  store ptr %this, ptr %this.addr, align 8
  %this1 = load ptr, ptr %this.addr, align 8
  %m_data = getelementptr inbounds %class.vector.1, ptr %this1, i32 0, i32 0
  %0 = load ptr, ptr %m_data, align 8
  %cmp = icmp eq ptr %0, null
  br i1 %cmp, label %if.then, label %if.end

if.then:                                          ; preds = %entry
  store i32 0, ptr %retval, align 4
  br label %return

if.end:                                           ; preds = %entry
  %m_data2 = getelementptr inbounds %class.vector.1, ptr %this1, i32 0, i32 0
  %1 = load ptr, ptr %m_data2, align 8
  %arrayidx = getelementptr inbounds i32, ptr %1, i64 -1
  %2 = load i32, ptr %arrayidx, align 4
  store i32 %2, ptr %retval, align 4
  br label %return

return:                                           ; preds = %if.end, %if.then
  %3 = load i32, ptr %retval, align 4
  ret i32 %3
}

; Function Attrs: mustprogress uwtable
define linkonce_odr hidden void @_ZN6vectorISt4pairI6symbolN6params5valueEELb0EjE7destroyEv(ptr noundef nonnull align 8 dereferenceable(8) %this) #5 comdat align 2 {
entry:
  %this.addr = alloca ptr, align 8
  store ptr %this, ptr %this.addr, align 8
  %this1 = load ptr, ptr %this.addr, align 8
  %m_data = getelementptr inbounds %class.vector.1, ptr %this1, i32 0, i32 0
  %0 = load ptr, ptr %m_data, align 8
  %tobool = icmp ne ptr %0, null
  br i1 %tobool, label %if.then, label %if.end

if.then:                                          ; preds = %entry
  call void @_ZN6vectorISt4pairI6symbolN6params5valueEELb0EjE11free_memoryEv(ptr noundef nonnull align 8 dereferenceable(8) %this1)
  br label %if.end

if.end:                                           ; preds = %if.then, %entry
  ret void
}

; Function Attrs: mustprogress uwtable
define hidden void @_ZN6params9del_valueERSt4pairI6symbolNS_5valueEE(ptr noundef nonnull align 8 dereferenceable(12) %this, ptr noundef nonnull align 8 dereferenceable(24) %e) #5 align 2 {
entry:
  %this.addr = alloca ptr, align 8
  %e.addr = alloca ptr, align 8
  store ptr %this, ptr %this.addr, align 8
  store ptr %e, ptr %e.addr, align 8
  %0 = load ptr, ptr %e.addr, align 8
  %second = getelementptr inbounds %"struct.std::pair", ptr %0, i32 0, i32 1
  %m_kind = getelementptr inbounds %"struct.params::value", ptr %second, i32 0, i32 0
  %1 = load i32, ptr %m_kind, align 8
  switch i32 %1, label %sw.default [
    i32 3, label %sw.bb
  ]

sw.bb:                                            ; preds = %entry
  %2 = load ptr, ptr %e.addr, align 8
  %second2 = getelementptr inbounds %"struct.std::pair", ptr %2, i32 0, i32 1
  %m_kind3 = getelementptr inbounds %"struct.params::value", ptr %second2, i32 0, i32 0
  %3 = load i32, ptr %m_kind3, align 8
  %cmp = icmp eq i32 %3, 3
  br i1 %cmp, label %if.then, label %if.end

if.then:                                          ; preds = %sw.bb
  %4 = load ptr, ptr %e.addr, align 8
  %second4 = getelementptr inbounds %"struct.std::pair", ptr %4, i32 0, i32 1
  %5 = getelementptr inbounds %"struct.params::value", ptr %second4, i32 0, i32 1
  %6 = load ptr, ptr %5, align 8
  call void @_Z7deallocI8rationalEvPT_(ptr noundef %6)
  br label %if.end

if.end:                                           ; preds = %if.then, %sw.bb
  br label %sw.epilog

sw.default:                                       ; preds = %entry
  br label %sw.epilog

sw.epilog:                                        ; preds = %sw.default, %if.end
  ret void
}

; Function Attrs: mustprogress uwtable
define linkonce_odr hidden noundef ptr @_ZN6vectorISt4pairI6symbolN6params5valueEELb0EjE3endEv(ptr noundef nonnull align 8 dereferenceable(8) %this) #5 comdat align 2 {
entry:
  %this.addr = alloca ptr, align 8
  store ptr %this, ptr %this.addr, align 8
  %this1 = load ptr, ptr %this.addr, align 8
  %m_data = getelementptr inbounds %class.vector.1, ptr %this1, i32 0, i32 0
  %0 = load ptr, ptr %m_data, align 8
  %call = call noundef i32 @_ZNK6vectorISt4pairI6symbolN6params5valueEELb0EjE4sizeEv(ptr noundef nonnull align 8 dereferenceable(8) %this1)
  %idx.ext = zext i32 %call to i64
  %add.ptr = getelementptr inbounds %"struct.std::pair", ptr %0, i64 %idx.ext
  ret ptr %add.ptr
}

; Function Attrs: mustprogress nounwind uwtable
define linkonce_odr hidden noundef ptr @_ZN6vectorISt4pairI6symbolN6params5valueEELb0EjE5beginEv(ptr noundef nonnull align 8 dereferenceable(8) %this) #4 comdat align 2 {
entry:
  %this.addr = alloca ptr, align 8
  store ptr %this, ptr %this.addr, align 8
  %this1 = load ptr, ptr %this.addr, align 8
  %m_data = getelementptr inbounds %class.vector.1, ptr %this1, i32 0, i32 0
  %0 = load ptr, ptr %m_data, align 8
  ret ptr %0
}

; Function Attrs: mustprogress uwtable
define linkonce_odr hidden void @_ZN6vectorISt4pairI6symbolN6params5valueEELb0EjE8finalizeEv(ptr noundef nonnull align 8 dereferenceable(8) %this) #5 comdat align 2 {
entry:
  %this.addr = alloca ptr, align 8
  store ptr %this, ptr %this.addr, align 8
  %this1 = load ptr, ptr %this.addr, align 8
  call void @_ZN6vectorISt4pairI6symbolN6params5valueEELb0EjE7destroyEv(ptr noundef nonnull align 8 dereferenceable(8) %this1)
  %m_data = getelementptr inbounds %class.vector.1, ptr %this1, i32 0, i32 0
  store ptr null, ptr %m_data, align 8
  ret void
}

; Function Attrs: mustprogress uwtable
define hidden void @_ZN6params10del_valuesEv(ptr noundef nonnull align 8 dereferenceable(12) %this) #5 align 2 {
entry:
  %this.addr = alloca ptr, align 8
  %it = alloca ptr, align 8
  %end = alloca ptr, align 8
  store ptr %this, ptr %this.addr, align 8
  %this1 = load ptr, ptr %this.addr, align 8
  %m_entries = getelementptr inbounds %class.params, ptr %this1, i32 0, i32 0
  %call = call noundef ptr @_ZN6vectorISt4pairI6symbolN6params5valueEELb0EjE5beginEv(ptr noundef nonnull align 8 dereferenceable(8) %m_entries)
  store ptr %call, ptr %it, align 8
  %m_entries2 = getelementptr inbounds %class.params, ptr %this1, i32 0, i32 0
  %call3 = call noundef ptr @_ZN6vectorISt4pairI6symbolN6params5valueEELb0EjE3endEv(ptr noundef nonnull align 8 dereferenceable(8) %m_entries2)
  store ptr %call3, ptr %end, align 8
  br label %for.cond

for.cond:                                         ; preds = %for.inc, %entry
  %0 = load ptr, ptr %it, align 8
  %1 = load ptr, ptr %end, align 8
  %cmp = icmp ne ptr %0, %1
  br i1 %cmp, label %for.body, label %for.end

for.body:                                         ; preds = %for.cond
  %2 = load ptr, ptr %it, align 8
  call void @_ZN6params9del_valueERSt4pairI6symbolNS_5valueEE(ptr noundef nonnull align 8 dereferenceable(12) %this1, ptr noundef nonnull align 8 dereferenceable(24) %2)
  br label %for.inc

for.inc:                                          ; preds = %for.body
  %3 = load ptr, ptr %it, align 8
  %incdec.ptr = getelementptr inbounds %"struct.std::pair", ptr %3, i32 1
  store ptr %incdec.ptr, ptr %it, align 8
  br label %for.cond, !llvm.loop !43

for.end:                                          ; preds = %for.cond
  ret void
}

; Function Attrs: mustprogress uwtable
define hidden void @_ZN6params5resetEv(ptr noundef nonnull align 8 dereferenceable(12) %this) #5 align 2 {
entry:
  %this.addr = alloca ptr, align 8
  store ptr %this, ptr %this.addr, align 8
  %this1 = load ptr, ptr %this.addr, align 8
  call void @_ZN6params10del_valuesEv(ptr noundef nonnull align 8 dereferenceable(12) %this1)
  %m_entries = getelementptr inbounds %class.params, ptr %this1, i32 0, i32 0
  call void @_ZN6vectorISt4pairI6symbolN6params5valueEELb0EjE8finalizeEv(ptr noundef nonnull align 8 dereferenceable(8) %m_entries)
  ret void
}