; Function Attrs: mustprogress uwtable
define hidden void @_ZN6params5resetEv(ptr nocapture noundef nonnull align 8 dereferenceable(12) %this) local_unnamed_addr #3 align 2 personality ptr @__gxx_personality_v0 {
entry:
  %0 = load ptr, ptr %this, align 8
  %cmp.i.i.i = icmp eq ptr %0, null
  br i1 %cmp.i.i.i, label %_ZN6vectorISt4pairI6symbolN6params5valueEELb0EjE8finalizeEv.exit, label %_ZN6vectorISt4pairI6symbolN6params5valueEELb0EjE3endEv.exit.i

_ZN6vectorISt4pairI6symbolN6params5valueEELb0EjE3endEv.exit.i: ; preds = %entry
  %arrayidx.i.i.i = getelementptr inbounds i8, ptr %0, i64 -4
  %1 = load i32, ptr %arrayidx.i.i.i, align 4
  %2 = zext i32 %1 to i64
  %add.ptr.i.i = getelementptr inbounds %"struct.std::pair", ptr %0, i64 %2
  %cmp.not5.i = icmp eq i32 %1, 0
  br i1 %cmp.not5.i, label %if.then.i.i1, label %for.body.i

for.body.i:                                       ; preds = %_ZN6vectorISt4pairI6symbolN6params5valueEELb0EjE3endEv.exit.i, %_ZN6params9del_valueERSt4pairI6symbolNS_5valueEE.exit.i
  %it.06.i = phi ptr [ %incdec.ptr.i, %_ZN6params9del_valueERSt4pairI6symbolNS_5valueEE.exit.i ], [ %0, %_ZN6vectorISt4pairI6symbolN6params5valueEELb0EjE3endEv.exit.i ]
  %second.i.i = getelementptr inbounds i8, ptr %it.06.i, i64 8
  %3 = load i32, ptr %second.i.i, align 8
  %cond.i.i = icmp eq i32 %3, 3
  br i1 %cond.i.i, label %if.then.i.i, label %_ZN6params9del_valueERSt4pairI6symbolNS_5valueEE.exit.i

if.then.i.i:                                      ; preds = %for.body.i
  %4 = getelementptr inbounds i8, ptr %it.06.i, i64 16
  %5 = load ptr, ptr %4, align 8
  %cmp.i.i3.i = icmp eq ptr %5, null
  br i1 %cmp.i.i3.i, label %_ZN6params9del_valueERSt4pairI6symbolNS_5valueEE.exit.i, label %if.end.i.i4.i

if.end.i.i4.i:                                    ; preds = %if.then.i.i
  %6 = load ptr, ptr @_ZN8rational13g_mpq_managerE, align 8
  invoke void @_ZN11mpz_managerILb1EE3delEPS0_R3mpz(ptr noundef %6, ptr noundef nonnull align 8 dereferenceable(16) %5)
          to label %.noexc.i.i.i.i unwind label %terminate.lpad.i.i.i.i

.noexc.i.i.i.i:                                   ; preds = %if.end.i.i4.i
  %m_den.i.i.i.i.i = getelementptr inbounds i8, ptr %5, i64 16
  invoke void @_ZN11mpz_managerILb1EE3delEPS0_R3mpz(ptr noundef %6, ptr noundef nonnull align 8 dereferenceable(16) %m_den.i.i.i.i.i)
          to label %_ZN8rationalD2Ev.exit.i.i.i unwind label %terminate.lpad.i.i.i.i

terminate.lpad.i.i.i.i:                           ; preds = %.noexc.i.i.i.i, %if.end.i.i4.i
  %7 = landingpad { ptr, i32 }
          catch ptr null
  %8 = extractvalue { ptr, i32 } %7, 0
  tail call void @__clang_call_terminate(ptr %8) #17
  unreachable

_ZN8rationalD2Ev.exit.i.i.i:                      ; preds = %.noexc.i.i.i.i
  tail call void @_ZN6memory10deallocateEPv(ptr noundef nonnull %5)
  br label %_ZN6params9del_valueERSt4pairI6symbolNS_5valueEE.exit.i

_ZN6params9del_valueERSt4pairI6symbolNS_5valueEE.exit.i: ; preds = %_ZN8rationalD2Ev.exit.i.i.i, %if.then.i.i, %for.body.i
  %incdec.ptr.i = getelementptr inbounds i8, ptr %it.06.i, i64 24
  %cmp.not.i = icmp eq ptr %incdec.ptr.i, %add.ptr.i.i
  br i1 %cmp.not.i, label %_ZN6params10del_valuesEv.exit, label %for.body.i, !llvm.loop !38

_ZN6params10del_valuesEv.exit:                    ; preds = %_ZN6params9del_valueERSt4pairI6symbolNS_5valueEE.exit.i
  %.pr.pre = load ptr, ptr %this, align 8
  %tobool.not.i.i = icmp eq ptr %.pr.pre, null
  br i1 %tobool.not.i.i, label %_ZN6vectorISt4pairI6symbolN6params5valueEELb0EjE8finalizeEv.exit, label %if.then.i.i1

if.then.i.i1:                                     ; preds = %_ZN6vectorISt4pairI6symbolN6params5valueEELb0EjE3endEv.exit.i, %_ZN6params10del_valuesEv.exit
  %.pr6 = phi ptr [ %.pr.pre, %_ZN6params10del_valuesEv.exit ], [ %0, %_ZN6vectorISt4pairI6symbolN6params5valueEELb0EjE3endEv.exit.i ]
  %add.ptr.i.i.i = getelementptr inbounds i8, ptr %.pr6, i64 -8
  tail call void @_ZN6memory10deallocateEPv(ptr noundef nonnull %add.ptr.i.i.i)
  br label %_ZN6vectorISt4pairI6symbolN6params5valueEELb0EjE8finalizeEv.exit

_ZN6vectorISt4pairI6symbolN6params5valueEELb0EjE8finalizeEv.exit: ; preds = %entry, %_ZN6params10del_valuesEv.exit, %if.then.i.i1
  store ptr null, ptr %this, align 8
  ret void
}